target datalayout = "e-m:e-p270:32:32-p271:32:32-p272:64:64-i64:64-i128:128-f80:128-n8:16:32:64-S128"
target triple = "x86_64-pc-linux-gnu"

%struct.wg_qqword = type { [32 x i8] }

@.str.105 = private unnamed_addr constant [55 x i8] c"%s:%u: failed assertion \22DISSECTOR_ASSERT_NOT_REACHED\22\00", align 1
@.str.106 = private unnamed_addr constant [35 x i8] c"epan/dissectors/packet-wireguard.c\00", align 1

; Function Attrs: alwaysinline nounwind
define internal ptr @memcpy.inline(ptr noalias %0, ptr noalias %1, i64 %2) #11 {
  %4 = alloca ptr, align 8
  %5 = alloca ptr, align 8
  %6 = alloca i64, align 8
  store ptr %0, ptr %4, align 8
  store ptr %1, ptr %5, align 8
  store i64 %2, ptr %6, align 8
  %7 = load ptr, ptr %4, align 8
  %8 = load ptr, ptr %5, align 8
  %9 = load i64, ptr %6, align 8
  %10 = load ptr, ptr %4, align 8
  %11 = call i64 @llvm.objectsize.i64.p0(ptr %10, i1 false, i1 true, i1 true)
  %12 = call ptr @__memcpy_chk(ptr noundef %7, ptr noundef %8, i64 noundef %9, i64 noundef %11) #19
  ret ptr %12
}

; Function Attrs: null_pointer_is_valid sspstrong uwtable
define internal void @wg_mix_hash(ptr noundef %0, ptr noundef %1, i64 noundef %2) #0 {
  %4 = alloca ptr, align 8
  %5 = alloca ptr, align 8
  %6 = alloca i64, align 8
  %7 = alloca ptr, align 8
  store ptr %0, ptr %4, align 8
  store ptr %1, ptr %5, align 8
  store i64 %2, ptr %6, align 8
  call void @llvm.lifetime.start.p0(i64 8, ptr %7) #19
  %8 = call i32 @gcry_md_open(ptr noundef %7, i32 noundef 322, i32 noundef 0)
  %9 = icmp ne i32 %8, 0
  br i1 %9, label %10, label %11

10:                                               ; preds = %3
  call void (ptr, ...) @proto_report_dissector_bug(ptr noundef @.str.105, ptr noundef @.str.106, i32 noundef 407) #22
  unreachable

11:                                               ; preds = %3
  %12 = load ptr, ptr %7, align 8
  %13 = load ptr, ptr %4, align 8
  %14 = getelementptr inbounds nuw %struct.wg_qqword, ptr %13, i32 0, i32 0
  %15 = getelementptr inbounds [32 x i8], ptr %14, i64 0, i64 0
  call void @gcry_md_write(ptr noundef %12, ptr noundef %15, i64 noundef 32)
  %16 = load ptr, ptr %7, align 8
  %17 = load ptr, ptr %5, align 8
  %18 = load i64, ptr %6, align 8
  call void @gcry_md_write(ptr noundef %16, ptr noundef %17, i64 noundef %18)
  %19 = load ptr, ptr %4, align 8
  %20 = load ptr, ptr %7, align 8
  %21 = call ptr @gcry_md_read(ptr noundef %20, i32 noundef 0)
  %22 = call ptr @memcpy.inline(ptr noundef %19, ptr noundef %21, i64 noundef 32) #19
  %23 = load ptr, ptr %7, align 8
  call void @gcry_md_close(ptr noundef %23)
  call void @llvm.lifetime.end.p0(i64 8, ptr %7) #19
  ret void
}