; Function Attrs: null_pointer_is_valid sspstrong uwtable
define internal fastcc void @wg_mix_hash(ptr noundef %0, ptr noundef %1, i64 noundef range(i64 16, 49) %2) unnamed_addr #0 {
  %4 = alloca ptr, align 8
  call void @llvm.lifetime.start.p0(i64 8, ptr nonnull %4) #18
  %5 = call i32 @gcry_md_open(ptr noundef nonnull %4, i32 noundef 322, i32 noundef 0)
  %.not = icmp eq i32 %5, 0
  br i1 %.not, label %7, label %6

6:                                                ; preds = %3
  call void (ptr, ...) @proto_report_dissector_bug(ptr noundef nonnull @.str.105, ptr noundef nonnull @.str.106, i32 noundef 407) #21
  unreachable

7:                                                ; preds = %3
  %8 = load ptr, ptr %4, align 8
  call void @gcry_md_write(ptr noundef %8, ptr noundef %0, i64 noundef 32)
  %9 = load ptr, ptr %4, align 8
  call void @gcry_md_write(ptr noundef %9, ptr noundef %1, i64 noundef %2)
  %10 = load ptr, ptr %4, align 8
  %11 = call ptr @gcry_md_read(ptr noundef %10, i32 noundef 0)
  call void @llvm.memcpy.p0.p0.i64(ptr noundef align 1 dereferenceable(32) %0, ptr noundef align 1 dereferenceable(32) %11, i64 noundef 32, i1 noundef false) #18
  %12 = load ptr, ptr %4, align 8
  call void @gcry_md_close(ptr noundef %12)
  call void @llvm.lifetime.end.p0(i64 8, ptr nonnull %4) #18
  ret void
}